; ModuleID = '60/1397.c'
source_filename = "60/1397.c"
target datalayout = "e-m:e-p270:32:32-p271:32:32-p272:64:64-i64:64-f80:128-n8:16:32:64-S128"
target triple = "x86_64-pc-linux-gnu"

@.str = private unnamed_addr constant [3 x i8] c"%d\00", align 1
@.str.1 = private unnamed_addr constant [7 x i8] c"%d %d\0A\00", align 1
@.str.2 = private unnamed_addr constant [6 x i8] c"empty\00", align 1

; Function Attrs: noinline nounwind uwtable
define dso_local i32 @main() #0 {
  %1 = alloca i32, align 4
  %2 = alloca i32, align 4
  %3 = alloca i32, align 4
  %4 = alloca i32, align 4
  %5 = alloca i32, align 4
  %6 = alloca i32, align 4
  store i32 0, i32* %1, align 4
  %7 = call i32 (i8*, ...) @__isoc99_scanf(i8* getelementptr inbounds ([3 x i8], [3 x i8]* @.str, i64 0, i64 0), i32* %2)
  %8 = load i32, i32* %2, align 4
  %9 = icmp sge i32 %8, 5
  br i1 %9, label %10, label %68

10:                                               ; preds = %0
  store i32 5, i32* %3, align 4
  br label %11

11:                                               ; preds = %64, %10
  %12 = load i32, i32* %3, align 4
  %13 = load i32, i32* %2, align 4
  %14 = icmp sle i32 %12, %13
  br i1 %14, label %15, label %67

15:                                               ; preds = %11
  store i32 0, i32* %5, align 4
  store i32 2, i32* %4, align 4
  br label %16

16:                                               ; preds = %29, %15
  %17 = load i32, i32* %4, align 4
  %18 = load i32, i32* %3, align 4
  %19 = icmp slt i32 %17, %18
  br i1 %19, label %20, label %32

20:                                               ; preds = %16
  %21 = load i32, i32* %3, align 4
  %22 = load i32, i32* %4, align 4
  %23 = srem i32 %21, %22
  %24 = icmp eq i32 %23, 0
  br i1 %24, label %25, label %28

25:                                               ; preds = %20
  %26 = load i32, i32* %5, align 4
  %27 = add nsw i32 %26, 1
  store i32 %27, i32* %5, align 4
  br label %28

28:                                               ; preds = %25, %20
  br label %29

29:                                               ; preds = %28
  %30 = load i32, i32* %4, align 4
  %31 = add nsw i32 %30, 1
  store i32 %31, i32* %4, align 4
  br label %16

32:                                               ; preds = %16
  %33 = load i32, i32* %5, align 4
  %34 = icmp eq i32 %33, 0
  br i1 %34, label %35, label %63

35:                                               ; preds = %32
  store i32 2, i32* %6, align 4
  br label %36

36:                                               ; preds = %51, %35
  %37 = load i32, i32* %6, align 4
  %38 = load i32, i32* %3, align 4
  %39 = sub nsw i32 %38, 2
  %40 = icmp slt i32 %37, %39
  br i1 %40, label %41, label %54

41:                                               ; preds = %36
  %42 = load i32, i32* %3, align 4
  %43 = sub nsw i32 %42, 2
  %44 = load i32, i32* %6, align 4
  %45 = srem i32 %43, %44
  %46 = icmp eq i32 %45, 0
  br i1 %46, label %47, label %50

47:                                               ; preds = %41
  %48 = load i32, i32* %5, align 4
  %49 = add nsw i32 %48, 1
  store i32 %49, i32* %5, align 4
  br label %50

50:                                               ; preds = %47, %41
  br label %51

51:                                               ; preds = %50
  %52 = load i32, i32* %6, align 4
  %53 = add nsw i32 %52, 1
  store i32 %53, i32* %6, align 4
  br label %36

54:                                               ; preds = %36
  %55 = load i32, i32* %5, align 4
  %56 = icmp eq i32 %55, 0
  br i1 %56, label %57, label %62

57:                                               ; preds = %54
  %58 = load i32, i32* %3, align 4
  %59 = sub nsw i32 %58, 2
  %60 = load i32, i32* %3, align 4
  %61 = call i32 (i8*, ...) @printf(i8* getelementptr inbounds ([7 x i8], [7 x i8]* @.str.1, i64 0, i64 0), i32 %59, i32 %60)
  br label %62

62:                                               ; preds = %57, %54
  br label %63

63:                                               ; preds = %62, %32
  store i32 0, i32* %5, align 4
  br label %64

64:                                               ; preds = %63
  %65 = load i32, i32* %3, align 4
  %66 = add nsw i32 %65, 1
  store i32 %66, i32* %3, align 4
  br label %11

67:                                               ; preds = %11
  br label %70

68:                                               ; preds = %0
  %69 = call i32 (i8*, ...) @printf(i8* getelementptr inbounds ([6 x i8], [6 x i8]* @.str.2, i64 0, i64 0))
  br label %70

70:                                               ; preds = %68, %67
  ret i32 0
}

declare dso_local i32 @__isoc99_scanf(i8*, ...) #1

declare dso_local i32 @printf(i8*, ...) #1


!llvm.module.flags = !{!0}
!llvm.ident = !{!1}

!0 = !{i32 1, !"wchar_size", i32 4}
!1 = !{!"clang version 10.0.0-4ubuntu1 "}
